Certificate:
    Data:
        Version: 3 (0x2)
        Serial Number: 12 (0xc)
        Signature Algorithm: sha256WithRSAEncryption
        Issuer: C=JP, ST=Tokyo, L=Default City, O=Default Company Ltd, CN=localca
        Validity
            Not Before: Nov  1 04:34:08 2020 GMT
            Not After : Oct 30 04:34:08 2030 GMT
        Subject: C=JP, ST=Tokyo, O=Default Company Ltd, CN=localhost
        Subject Public Key Info:
            Public Key Algorithm: rsaEncryption
                RSA Public-Key: (2048 bit)
                Modulus:
                    00:b8:76:e7:4f:75:d2:ca:fd:03:f9:68:c6:87:b7:
                    28:12:08:be:cb:36:9d:8a:ac:78:2f:dd:4b:76:2d:
                    5c:c5:6c:b2:d9:45:4a:34:a4:e7:00:f2:f2:b5:e0:
                    9d:b8:f1:d8:f7:7c:fc:4a:ab:53:5f:d0:b2:fb:87:
                    4f:7e:c3:fc:cd:ea:9f:92:a8:ba:69:a9:31:b0:99:
                    a8:0d:84:bb:15:82:82:09:7e:40:44:a5:c1:9a:db:
                    6d:3d:20:5d:57:7e:c4:94:d9:ec:2b:6f:9e:15:68:
                    93:03:6f:db:ff:fd:da:47:dd:e7:d9:74:58:7e:24:
                    ec:af:2d:67:bb:da:06:cb:0f:8a:01:3d:a1:e9:c2:
                    3c:29:50:ae:33:ec:f3:c9:e1:9d:59:f8:26:fa:aa:
                    49:c8:39:70:6a:f2:cc:92:9c:61:b9:31:82:61:d2:
                    3b:fc:7c:64:66:c9:d2:42:98:44:59:ef:e5:9a:c7:
                    4b:17:51:95:4f:06:c5:4b:10:cb:84:e7:85:8a:c4:
                    2a:bc:3c:c8:20:43:7d:62:4c:ee:b4:c4:de:b5:58:
                    4d:ee:a6:68:19:93:af:e6:40:88:70:da:eb:ce:be:
                    91:ab:24:90:8b:21:c7:db:ca:94:8d:bc:77:c6:15:
                    22:b2:7c:5d:79:43:94:47:a1:36:3a:34:a9:b5:ff:
                    7d:4d
                Exponent: 65537 (0x10001)
        X509v3 extensions:
            X509v3 Subject Alternative Name: 
                DNS:localhost
    Signature Algorithm: sha256WithRSAEncryption
         b3:d8:8a:91:8b:e8:c0:3f:1a:72:32:a2:2e:fe:cd:d4:94:41:
         7b:23:ea:56:b4:d9:76:c9:c1:d9:87:e1:c7:e2:23:b6:f6:09:
         2e:48:cc:ad:cc:69:14:33:c0:f4:eb:79:9d:1c:41:31:db:00:
         89:29:a1:c5:b5:7d:6a:9a:f9:8d:e0:f1:4f:fa:27:5c:d1:4a:
         6d:9c:97:1d:86:d6:a8:1a:53:61:9b:d3:81:45:b1:95:1d:a2:
         78:26:12:2b:a0:3b:8a:05:29:94:89:ff:ab:20:ff:fa:1e:6c:
         c1:a6:59:be:7d:67:dc:ac:9d:ed:ce:a4:bc:27:f5:0d:5a:e4:
         17:50:d6:f7:42:7b:0a:2d:71:ab:f8:ee:65:4e:f4:84:49:52:
         3a:5b:3c:b8:e6:72:f2:29:ba:35:4a:3a:21:39:69:68:2e:7c:
         12:d9:14:65:a9:2c:c3:0f:af:fc:ef:ae:ef:73:89:93:57:4a:
         20:23:7a:b2:ff:aa:07:7c:8a:95:53:ec:e3:93:dc:41:fa:53:
         66:4c:27:c4:80:89:6d:d3:03:be:1f:91:8c:bf:0a:ba:06:68:
         54:d4:0a:f5:47:cc:68:5a:1b:98:1a:a2:19:c1:dd:eb:07:00:
         69:b0:4f:c9:41:bc:69:9b:0d:17:19:5d:7d:7d:8c:b9:89:bf:
         42:2d:c9:88
-----BEGIN CERTIFICATE-----
MIIDRjCCAi6gAwIBAgIBDDANBgkqhkiG9w0BAQsFADBkMQswCQYDVQQGEwJKUDEO
MAwGA1UECAwFVG9reW8xFTATBgNVBAcMDERlZmF1bHQgQ2l0eTEcMBoGA1UECgwT
RGVmYXVsdCBDb21wYW55IEx0ZDEQMA4GA1UEAwwHbG9jYWxjYTAeFw0yMDExMDEw
NDM0MDhaFw0zMDEwMzAwNDM0MDhaME8xCzAJBgNVBAYTAkpQMQ4wDAYDVQQIDAVU
b2t5bzEcMBoGA1UECgwTRGVmYXVsdCBDb21wYW55IEx0ZDESMBAGA1UEAwwJbG9j
YWxob3N0MIIBIjANBgkqhkiG9w0BAQEFAAOCAQ8AMIIBCgKCAQEAuHbnT3XSyv0D
+WjGh7coEgi+yzadiqx4L91Ldi1cxWyy2UVKNKTnAPLyteCduPHY93z8SqtTX9Cy
+4dPfsP8zeqfkqi6aakxsJmoDYS7FYKCCX5ARKXBmtttPSBdV37ElNnsK2+eFWiT
A2/b//3aR93n2XRYfiTsry1nu9oGyw+KAT2h6cI8KVCuM+zzyeGdWfgm+qpJyDlw
avLMkpxhuTGCYdI7/HxkZsnSQphEWe/lmsdLF1GVTwbFSxDLhOeFisQqvDzIIEN9
YkzutMTetVhN7qZoGZOv5kCIcNrrzr6RqySQiyHH28qUjbx3xhUisnxdeUOUR6E2
OjSptf99TQIDAQABoxgwFjAUBgNVHREEDTALgglsb2NhbGhvc3QwDQYJKoZIhvcN
AQELBQADggEBALPYipGL6MA/GnIyoi7+zdSUQXsj6la02XbJwdmH4cfiI7b2CS5I
zK3MaRQzwPTreZ0cQTHbAIkpocW1fWqa+Y3g8U/6J1zRSm2clx2G1qgaU2Gb04FF
sZUdongmEiugO4oFKZSJ/6sg//oebMGmWb59Z9ysne3OpLwn9Q1a5BdQ1vdCewot
cav47mVO9IRJUjpbPLjmcvIpujVKOiE5aWgufBLZFGWpLMMPr/zvru9ziZNXSiAj
erL/qgd8ipVT7OOT3EH6U2ZMJ8SAiW3TA74fkYy/CroGaFTUCvVHzGhaG5gaohnB
3esHAGmwT8lBvGmbDRcZXX19jLmJv0ItyYg=
-----END CERTIFICATE-----
