Certificate:
    Data:
        Version: 3 (0x2)
        Serial Number: 1 (0x1)
        Signature Algorithm: sha256WithRSAEncryption
        Issuer: C=JP, ST=Tokyo, L=Default City, O=Default Company Ltd, CN=localhost
        Validity
            Not Before: Apr 23 03:19:12 2020 GMT
            Not After : Apr 21 03:19:12 2030 GMT
        Subject: C=JP, ST=Tokyo, O=Default Company Ltd, CN=localhost
        Subject Public Key Info:
            Public Key Algorithm: rsaEncryption
                RSA Public-Key: (2048 bit)
                Modulus:
                    00:b8:76:e7:4f:75:d2:ca:fd:03:f9:68:c6:87:b7:
                    28:12:08:be:cb:36:9d:8a:ac:78:2f:dd:4b:76:2d:
                    5c:c5:6c:b2:d9:45:4a:34:a4:e7:00:f2:f2:b5:e0:
                    9d:b8:f1:d8:f7:7c:fc:4a:ab:53:5f:d0:b2:fb:87:
                    4f:7e:c3:fc:cd:ea:9f:92:a8:ba:69:a9:31:b0:99:
                    a8:0d:84:bb:15:82:82:09:7e:40:44:a5:c1:9a:db:
                    6d:3d:20:5d:57:7e:c4:94:d9:ec:2b:6f:9e:15:68:
                    93:03:6f:db:ff:fd:da:47:dd:e7:d9:74:58:7e:24:
                    ec:af:2d:67:bb:da:06:cb:0f:8a:01:3d:a1:e9:c2:
                    3c:29:50:ae:33:ec:f3:c9:e1:9d:59:f8:26:fa:aa:
                    49:c8:39:70:6a:f2:cc:92:9c:61:b9:31:82:61:d2:
                    3b:fc:7c:64:66:c9:d2:42:98:44:59:ef:e5:9a:c7:
                    4b:17:51:95:4f:06:c5:4b:10:cb:84:e7:85:8a:c4:
                    2a:bc:3c:c8:20:43:7d:62:4c:ee:b4:c4:de:b5:58:
                    4d:ee:a6:68:19:93:af:e6:40:88:70:da:eb:ce:be:
                    91:ab:24:90:8b:21:c7:db:ca:94:8d:bc:77:c6:15:
                    22:b2:7c:5d:79:43:94:47:a1:36:3a:34:a9:b5:ff:
                    7d:4d
                Exponent: 65537 (0x10001)
        X509v3 extensions:
            X509v3 Basic Constraints: 
                CA:FALSE
            Netscape Comment: 
                OpenSSL Generated Certificate
            X509v3 Subject Key Identifier: 
                58:44:99:44:2B:01:6E:2F:02:C6:BB:39:FD:20:84:4D:40:80:51:63
            X509v3 Authority Key Identifier: 
                DirName:/C=JP/ST=Tokyo/L=Default City/O=Default Company Ltd/CN=localhost
                serial:61:A5:F4:3B:94:45:E4:99:82:CD:F0:82:19:F5:6D:69:C2:AB:13:77

    Signature Algorithm: sha256WithRSAEncryption
         98:f7:47:ec:74:26:d9:a6:86:ef:cc:cd:3e:84:8b:c7:3c:79:
         ff:04:dc:d1:24:95:51:c2:c3:5a:49:cc:19:f0:bd:af:b1:b0:
         27:ed:a0:c2:98:a6:5d:77:ce:71:98:f0:e7:33:27:4e:cf:72:
         4f:f0:50:e2:20:4a:23:a9:e1:ab:35:0d:69:66:7a:7c:df:58:
         65:08:55:87:bf:d7:a9:64:9d:18:52:a1:a4:2b:78:83:27:03:
         ec:48:52:ee:2d:94:40:ef:b3:ea:9a:0b:81:fa:be:48:23:ba:
         61:11:06:09:36:64:db:6c:e7:c9:41:48:27:c2:cf:22:f6:07:
         57:a0:e8:a4:43:fe:25:c1:81:2c:c8:6b:01:82:b7:9f:b8:81:
         d8:1f:55:05:e2:6b:39:2b:4b:7d:a2:2c:79:81:de:ea:7e:6d:
         c3:e2:3b:87:6e:3e:ec:70:49:4e:0e:ac:51:b6:dd:84:b3:9c:
         81:f4:c3:09:9f:ba:89:da:38:7b:71:cf:d0:ba:ff:c0:63:c5:
         ee:1d:2e:0e:95:ac:95:dd:60:84:3b:94:a6:00:5d:a8:fc:82:
         1f:bd:e5:00:cc:a1:50:97:67:6a:52:53:99:d9:3c:10:ce:b7:
         3f:39:ea:45:d3:17:fb:b6:bb:0f:7e:2f:66:97:66:1c:37:83:
         17:01:d6:44
-----BEGIN CERTIFICATE-----
MIIEHDCCAwSgAwIBAgIBATANBgkqhkiG9w0BAQsFADBmMQswCQYDVQQGEwJKUDEO
MAwGA1UECAwFVG9reW8xFTATBgNVBAcMDERlZmF1bHQgQ2l0eTEcMBoGA1UECgwT
RGVmYXVsdCBDb21wYW55IEx0ZDESMBAGA1UEAwwJbG9jYWxob3N0MB4XDTIwMDQy
MzAzMTkxMloXDTMwMDQyMTAzMTkxMlowTzELMAkGA1UEBhMCSlAxDjAMBgNVBAgM
BVRva3lvMRwwGgYDVQQKDBNEZWZhdWx0IENvbXBhbnkgTHRkMRIwEAYDVQQDDAls
b2NhbGhvc3QwggEiMA0GCSqGSIb3DQEBAQUAA4IBDwAwggEKAoIBAQC4dudPddLK
/QP5aMaHtygSCL7LNp2KrHgv3Ut2LVzFbLLZRUo0pOcA8vK14J248dj3fPxKq1Nf
0LL7h09+w/zN6p+SqLppqTGwmagNhLsVgoIJfkBEpcGa2209IF1XfsSU2ewrb54V
aJMDb9v//dpH3efZdFh+JOyvLWe72gbLD4oBPaHpwjwpUK4z7PPJ4Z1Z+Cb6qknI
OXBq8sySnGG5MYJh0jv8fGRmydJCmERZ7+Wax0sXUZVPBsVLEMuE54WKxCq8PMgg
Q31iTO60xN61WE3upmgZk6/mQIhw2uvOvpGrJJCLIcfbypSNvHfGFSKyfF15Q5RH
oTY6NKm1/31NAgMBAAGjgeswgegwCQYDVR0TBAIwADAsBglghkgBhvhCAQ0EHxYd
T3BlblNTTCBHZW5lcmF0ZWQgQ2VydGlmaWNhdGUwHQYDVR0OBBYEFFhEmUQrAW4v
Asa7Of0ghE1AgFFjMIGNBgNVHSMEgYUwgYKhaqRoMGYxCzAJBgNVBAYTAkpQMQ4w
DAYDVQQIDAVUb2t5bzEVMBMGA1UEBwwMRGVmYXVsdCBDaXR5MRwwGgYDVQQKDBNE
ZWZhdWx0IENvbXBhbnkgTHRkMRIwEAYDVQQDDAlsb2NhbGhvc3SCFGGl9DuUReSZ
gs3wghn1bWnCqxN3MA0GCSqGSIb3DQEBCwUAA4IBAQCY90fsdCbZpobvzM0+hIvH
PHn/BNzRJJVRwsNaScwZ8L2vsbAn7aDCmKZdd85xmPDnMydOz3JP8FDiIEojqeGr
NQ1pZnp831hlCFWHv9epZJ0YUqGkK3iDJwPsSFLuLZRA77PqmguB+r5II7phEQYJ
NmTbbOfJQUgnws8i9gdXoOikQ/4lwYEsyGsBgrefuIHYH1UF4ms5K0t9oix5gd7q
fm3D4juHbj7scElODqxRtt2Es5yB9MMJn7qJ2jh7cc/Quv/AY8XuHS4OlayV3WCE
O5SmAF2o/IIfveUAzKFQl2dqUlOZ2TwQzrc/OepF0xf7trsPfi9ml2YcN4MXAdZE
-----END CERTIFICATE-----
